CCS PCM C Compiler, Version 5.008, 5967               13-May-19 11:05

               Filename:   C:\Users\dougl\Desktop\Matricial Teclado\teclado_matricial.lst

               ROM used:   573 words (7%)
                           Largest free fragment is 2048
               RAM used:   28 (8%) at main() level
                           33 (9%) worst case
               Stack used: 3 locations (2 in main + 1 for interrupts)
               Stack size: 8

*
0000:  MOVLW  01
0001:  MOVWF  0A
0002:  GOTO   18E
0003:  NOP
0004:  MOVWF  7F
0005:  SWAPF  03,W
0006:  CLRF   03
0007:  MOVWF  21
0008:  MOVF   0A,W
0009:  MOVWF  20
000A:  CLRF   0A
000B:  MOVF   04,W
000C:  MOVWF  22
000D:  MOVF   77,W
000E:  MOVWF  23
000F:  MOVF   78,W
0010:  MOVWF  24
0011:  MOVF   79,W
0012:  MOVWF  25
0013:  MOVF   7A,W
0014:  MOVWF  26
0015:  BCF    03.7
0016:  BCF    03.5
0017:  BTFSS  0B.5
0018:  GOTO   01B
0019:  BTFSC  0B.2
001A:  GOTO   02C
001B:  MOVF   22,W
001C:  MOVWF  04
001D:  MOVF   23,W
001E:  MOVWF  77
001F:  MOVF   24,W
0020:  MOVWF  78
0021:  MOVF   25,W
0022:  MOVWF  79
0023:  MOVF   26,W
0024:  MOVWF  7A
0025:  MOVF   20,W
0026:  MOVWF  0A
0027:  SWAPF  21,W
0028:  MOVWF  03
0029:  SWAPF  7F,F
002A:  SWAPF  7F,W
002B:  RETFIE
002C:  BCF    0A.3
002D:  BCF    0A.4
002E:  GOTO   03F
.................... #include <16F877A.h> 
.................... //////// Standard Header file for the PIC16F877A device //////////////// 
.................... #device PIC16F877A 
002F:  BCF    0A.0
0030:  BCF    0A.1
0031:  BCF    0A.2
0032:  ADDWF  02,F
0033:  RETLW  31
0034:  RETLW  32
0035:  RETLW  33
0036:  RETLW  34
0037:  RETLW  35
0038:  RETLW  36
0039:  RETLW  37
003A:  RETLW  38
003B:  RETLW  39
003C:  RETLW  2A
003D:  RETLW  30
003E:  RETLW  23
*
0142:  CLRF   77
0143:  CLRF   78
0144:  MOVF   39,W
0145:  BCF    03.0
0146:  BTFSC  3A.0
0147:  ADDWF  77,F
0148:  RRF    77,F
0149:  RRF    78,F
014A:  BTFSC  3A.1
014B:  ADDWF  77,F
014C:  RRF    77,F
014D:  RRF    78,F
014E:  BTFSC  3A.2
014F:  ADDWF  77,F
0150:  RRF    77,F
0151:  RRF    78,F
0152:  BTFSC  3A.3
0153:  ADDWF  77,F
0154:  RRF    77,F
0155:  RRF    78,F
0156:  BTFSC  3A.4
0157:  ADDWF  77,F
0158:  RRF    77,F
0159:  RRF    78,F
015A:  BTFSC  3A.5
015B:  ADDWF  77,F
015C:  RRF    77,F
015D:  RRF    78,F
015E:  BTFSC  3A.6
015F:  ADDWF  77,F
0160:  RRF    77,F
0161:  RRF    78,F
0162:  BTFSC  3A.7
0163:  ADDWF  77,F
0164:  RRF    77,F
0165:  RRF    78,F
....................  
.................... #list 
....................  
.................... #device ADC=10 
....................  
.................... #FUSES NOWDT                    //No Watch Dog Timer 
.................... #FUSES NOBROWNOUT               //No brownout reset 
.................... #FUSES NOLVP                    //No low voltage prgming, B3(PIC16) or B5(PIC18) used for I/O 
....................  
.................... #use delay(crystal=20000000) 
*
0178:  MOVLW  37
0179:  MOVWF  04
017A:  BCF    03.7
017B:  MOVF   00,W
017C:  BTFSC  03.2
017D:  GOTO   18B
017E:  MOVLW  06
017F:  MOVWF  78
0180:  CLRF   77
0181:  DECFSZ 77,F
0182:  GOTO   181
0183:  DECFSZ 78,F
0184:  GOTO   180
0185:  MOVLW  7B
0186:  MOVWF  77
0187:  DECFSZ 77,F
0188:  GOTO   187
0189:  DECFSZ 00,F
018A:  GOTO   17E
018B:  BCF    0A.3
018C:  BCF    0A.4
018D:  GOTO   1FA (RETURN)
....................  
.................... #include <flex_kbd.c> 
.................... ///////////////////////////////////////////////////////////////////////////  
.................... ////                             Flex_KBD.C                            ////  
.................... ////                  Generic keypad scan driver                       ////  
.................... ////                                                                   ////  
.................... ////  kbd_init()   Must be called before any other function.           ////  
.................... ////                                                                   ////  
.................... ////  c = kbd_getc(c)  Will return a key value if pressed or /0 if not ////  
.................... ////                   This function should be called frequently so as ////  
.................... ////                   not to miss a key press.                        ////  
.................... ////                                                                   ////  
.................... ///////////////////////////////////////////////////////////////////////////  
....................  
....................  
.................... //Keypad connection:   
....................  
.................... #define col0 PIN_B5 
.................... #define col1 PIN_B6 
.................... #define col2 PIN_B7 
.................... #define row0 PIN_B1 
.................... #define row1 PIN_B2 
.................... #define row2 PIN_B3 
.................... #define row3 PIN_B4 
....................  
....................  
.................... // Keypad layout:  
.................... char const KEYS[4][3] = {{'1','2','3'},  
....................                          {'4','5','6'},  
....................                          {'7','8','9'},  
....................                          {'*','0','#'}};  
....................  
.................... #define KBD_DEBOUNCE_FACTOR 33    // Set this number to apx n/333 where  
....................                                   // n is the number of times you expect  
....................                                   // to call kbd_getc each second  
....................  
....................  
....................  
.................... void kbd_init() {  
*
00B3:  BCF    0A.3
00B4:  BCF    0A.4
00B5:  GOTO   1E5 (RETURN)
.................... }  
....................  
....................  
.................... short int ALL_ROWS (void)  
.................... {  
....................    if (input (row0) & input (row1) & input (row2) & input (row3))  
00B6:  BSF    03.5
00B7:  BSF    06.1
00B8:  MOVLW  00
00B9:  BCF    03.5
00BA:  BTFSC  06.1
00BB:  MOVLW  01
00BC:  MOVWF  39
00BD:  BSF    03.5
00BE:  BSF    06.2
00BF:  MOVLW  00
00C0:  BCF    03.5
00C1:  BTFSC  06.2
00C2:  MOVLW  01
00C3:  ANDWF  39,F
00C4:  BSF    03.5
00C5:  BSF    06.3
00C6:  MOVLW  00
00C7:  BCF    03.5
00C8:  BTFSC  06.3
00C9:  MOVLW  01
00CA:  ANDWF  39,F
00CB:  BSF    03.5
00CC:  BSF    06.4
00CD:  MOVLW  00
00CE:  BCF    03.5
00CF:  BTFSC  06.4
00D0:  MOVLW  01
00D1:  ANDWF  39,W
00D2:  BTFSC  03.2
00D3:  GOTO   0D8
....................       return (0);  
00D4:  MOVLW  00
00D5:  MOVWF  78
00D6:  GOTO   0DA
00D7:  GOTO   0DA
....................    else  
....................       return (1);  
00D8:  MOVLW  01
00D9:  MOVWF  78
00DA:  RETURN
.................... }  
....................  
....................  
....................  
.................... char kbd_getc( ) {  
....................    static byte kbd_call_count;  
*
01A1:  BCF    03.5
01A2:  CLRF   27
....................    static short int kbd_down;  
01A3:  BCF    28.0
....................    static char last_key;  
01A4:  CLRF   29
....................    static byte col;  
01A5:  CLRF   2A
....................  
....................    byte kchar;  
....................    byte row;  
....................  
....................    kchar='\0';  
*
00DB:  CLRF   37
....................    if(++kbd_call_count>KBD_DEBOUNCE_FACTOR) {  
00DC:  INCF   27,F
00DD:  MOVF   27,W
00DE:  SUBLW  21
00DF:  BTFSC  03.0
00E0:  GOTO   173
....................        switch (col) {  
00E1:  MOVF   2A,W
00E2:  BTFSC  03.2
00E3:  GOTO   0EB
00E4:  XORLW  01
00E5:  BTFSC  03.2
00E6:  GOTO   0F8
00E7:  XORLW  03
00E8:  BTFSC  03.2
00E9:  GOTO   105
00EA:  GOTO   111
....................          case 0   : output_low(col0);  
00EB:  BSF    03.5
00EC:  BCF    06.5
00ED:  BCF    03.5
00EE:  BCF    06.5
....................                output_high(col1);  
00EF:  BSF    03.5
00F0:  BCF    06.6
00F1:  BCF    03.5
00F2:  BSF    06.6
....................                output_high(col2);  
00F3:  BSF    03.5
00F4:  BCF    06.7
00F5:  BCF    03.5
00F6:  BSF    06.7
....................                     break;  
00F7:  GOTO   111
....................          case 1   : output_high(col0);  
00F8:  BSF    03.5
00F9:  BCF    06.5
00FA:  BCF    03.5
00FB:  BSF    06.5
....................                output_low(col1);  
00FC:  BSF    03.5
00FD:  BCF    06.6
00FE:  BCF    03.5
00FF:  BCF    06.6
....................                output_high(col2);  
0100:  BSF    03.5
0101:  BCF    06.7
0102:  BCF    03.5
0103:  BSF    06.7
....................                     break;  
0104:  GOTO   111
....................          case 2   : output_high(col0);  
0105:  BSF    03.5
0106:  BCF    06.5
0107:  BCF    03.5
0108:  BSF    06.5
....................                output_high(col1);  
0109:  BSF    03.5
010A:  BCF    06.6
010B:  BCF    03.5
010C:  BSF    06.6
....................                output_low(col2);  
010D:  BSF    03.5
010E:  BCF    06.7
010F:  BCF    03.5
0110:  BCF    06.7
....................                     break;  
....................        }  
....................  
....................        if(kbd_down) {  
0111:  BTFSS  28.0
0112:  GOTO   11C
....................          if(!ALL_ROWS()) {  
0113:  CALL   0B6
0114:  MOVF   78,F
0115:  BTFSS  03.2
0116:  GOTO   11B
....................            kbd_down=false;  
0117:  BCF    28.0
....................            kchar=last_key;  
0118:  MOVF   29,W
0119:  MOVWF  37
....................            last_key='\0';  
011A:  CLRF   29
....................          }  
....................        } else {  
011B:  GOTO   172
....................           if(ALL_ROWS()) {  
011C:  CALL   0B6
011D:  MOVF   78,F
011E:  BTFSC  03.2
011F:  GOTO   16D
....................              if(!input (row0))  
0120:  BSF    03.5
0121:  BSF    06.1
0122:  BCF    03.5
0123:  BTFSC  06.1
0124:  GOTO   127
....................                row=0;  
0125:  CLRF   38
0126:  GOTO   13E
....................              else if(!input (row1))  
0127:  BSF    03.5
0128:  BSF    06.2
0129:  BCF    03.5
012A:  BTFSC  06.2
012B:  GOTO   12F
....................                row=1;  
012C:  MOVLW  01
012D:  MOVWF  38
012E:  GOTO   13E
....................              else if(!input (row2))  
012F:  BSF    03.5
0130:  BSF    06.3
0131:  BCF    03.5
0132:  BTFSC  06.3
0133:  GOTO   137
....................                row=2;  
0134:  MOVLW  02
0135:  MOVWF  38
0136:  GOTO   13E
....................              else if(!input (row3))  
0137:  BSF    03.5
0138:  BSF    06.4
0139:  BCF    03.5
013A:  BTFSC  06.4
013B:  GOTO   13E
....................                row=3;  
013C:  MOVLW  03
013D:  MOVWF  38
....................              last_key =KEYS[row][col];  
013E:  MOVF   38,W
013F:  MOVWF  39
0140:  MOVLW  03
0141:  MOVWF  3A
*
0166:  MOVF   2A,W
0167:  ADDWF  78,W
0168:  CALL   02F
0169:  MOVWF  78
016A:  MOVWF  29
....................              kbd_down = true;  
016B:  BSF    28.0
....................           } else {  
016C:  GOTO   172
....................              ++col;  
016D:  INCF   2A,F
....................              if(col==3)  
016E:  MOVF   2A,W
016F:  SUBLW  03
0170:  BTFSC  03.2
....................                col=0;  
0171:  CLRF   2A
....................           }  
....................        }  
....................       kbd_call_count=0;  
0172:  CLRF   27
....................    }  
....................   return(kchar);  
0173:  MOVF   37,W
0174:  MOVWF  78
0175:  BCF    0A.3
0176:  BCF    0A.4
0177:  GOTO   1F5 (RETURN)
.................... }  
....................  
....................  
.................... // Variáveis do motor de passo 
....................  
.................... int1 sentido = 0; 
.................... int8 tempo, cont = 0; 
.................... int8 passos[4] = {0x0A, 0x09, 0x05, 0x06}; 
*
01A6:  MOVLW  0A
01A7:  MOVWF  2D
01A8:  MOVLW  09
01A9:  MOVWF  2E
01AA:  MOVLW  05
01AB:  MOVWF  2F
01AC:  MOVLW  06
01AD:  MOVWF  30
.................... signed int i = 0; 
....................  
.................... // Variáveis do motor dc 
....................  
.................... int16 velocidade_dc = 0; 
.................... int1 sentido_dc = 0; 
....................  
.................... char c; 
....................  
.................... #INT_RTCC 
.................... void  RTCC_isr(void)  
.................... { 
....................  
....................    // motor de passo 
....................     
....................    if(tempo > 0){ 
*
003F:  MOVF   2B,F
0040:  BTFSC  03.2
0041:  GOTO   072
....................       cont++; 
0042:  INCF   2C,F
....................       if (sentido == 1){ 
0043:  BTFSS  28.1
0044:  GOTO   05D
....................        if (i > 3) i = 0;  
0045:  BTFSC  31.7
0046:  GOTO   04B
0047:  MOVF   31,W
0048:  SUBLW  03
0049:  BTFSS  03.0
004A:  CLRF   31
....................          if(cont >= tempo){ 
004B:  MOVF   2B,W
004C:  SUBWF  2C,W
004D:  BTFSS  03.0
004E:  GOTO   05C
....................             output_d(passos[i]); 
004F:  MOVLW  2D
0050:  ADDWF  31,W
0051:  MOVWF  04
0052:  BCF    03.7
0053:  MOVF   00,W
0054:  MOVWF  3B
0055:  BSF    03.5
0056:  CLRF   08
0057:  BCF    03.5
0058:  MOVF   3B,W
0059:  MOVWF  08
....................             i++; 
005A:  INCF   31,F
....................             cont = 0; 
005B:  CLRF   2C
....................          } 
....................       }else{ 
005C:  GOTO   072
....................          if (i < 0) i = 3; 
005D:  BTFSS  31.7
005E:  GOTO   061
005F:  MOVLW  03
0060:  MOVWF  31
....................          if(cont >= tempo){ 
0061:  MOVF   2B,W
0062:  SUBWF  2C,W
0063:  BTFSS  03.0
0064:  GOTO   072
....................             output_d(passos[i]); 
0065:  MOVLW  2D
0066:  ADDWF  31,W
0067:  MOVWF  04
0068:  BCF    03.7
0069:  MOVF   00,W
006A:  MOVWF  3B
006B:  BSF    03.5
006C:  CLRF   08
006D:  BCF    03.5
006E:  MOVF   3B,W
006F:  MOVWF  08
....................             i--;     
0070:  DECF   31,F
....................             cont = 0; 
0071:  CLRF   2C
....................          } 
....................       } 
....................    } 
....................     
....................    // motor dc 
....................     
....................    if(sentido_dc == 1){ 
0072:  BTFSS  28.2
0073:  GOTO   092
....................       set_pwm2_duty((int16)0); 
0074:  CLRF   1B
0075:  MOVF   1D,W
0076:  ANDLW  CF
0077:  MOVWF  1D
....................       delay_us(50); 
0078:  MOVLW  52
0079:  MOVWF  77
007A:  DECFSZ 77,F
007B:  GOTO   07A
007C:  GOTO   07D
007D:  NOP
....................       set_pwm1_duty((int16)velocidade_dc); 
007E:  MOVF   33,W
007F:  MOVWF  79
0080:  MOVF   32,W
0081:  MOVWF  78
0082:  RRF    79,F
0083:  RRF    78,F
0084:  RRF    79,F
0085:  RRF    78,F
0086:  RRF    79,F
0087:  MOVF   78,W
0088:  MOVWF  15
0089:  RRF    79,F
008A:  RRF    79,W
008B:  ANDLW  30
008C:  MOVWF  77
008D:  MOVF   17,W
008E:  ANDLW  CF
008F:  IORWF  77,W
0090:  MOVWF  17
....................    } else{ 
0091:  GOTO   0AF
....................       set_pwm1_duty((int16)0); 
0092:  CLRF   15
0093:  MOVF   17,W
0094:  ANDLW  CF
0095:  MOVWF  17
....................       delay_us(50); 
0096:  MOVLW  52
0097:  MOVWF  77
0098:  DECFSZ 77,F
0099:  GOTO   098
009A:  GOTO   09B
009B:  NOP
....................       set_pwm2_duty((int16)velocidade_dc); 
009C:  MOVF   33,W
009D:  MOVWF  79
009E:  MOVF   32,W
009F:  MOVWF  78
00A0:  RRF    79,F
00A1:  RRF    78,F
00A2:  RRF    79,F
00A3:  RRF    78,F
00A4:  RRF    79,F
00A5:  MOVF   78,W
00A6:  MOVWF  1B
00A7:  RRF    79,F
00A8:  RRF    79,W
00A9:  ANDLW  30
00AA:  MOVWF  77
00AB:  MOVF   1D,W
00AC:  ANDLW  CF
00AD:  IORWF  77,W
00AE:  MOVWF  1D
....................    } 
....................     
00AF:  BCF    0B.2
00B0:  BCF    0A.3
00B1:  BCF    0A.4
00B2:  GOTO   01B
.................... } 
....................  
....................  
.................... void main() 
*
018E:  MOVF   03,W
018F:  ANDLW  1F
0190:  MOVWF  03
0191:  BCF    28.1
0192:  CLRF   2C
0193:  CLRF   31
0194:  CLRF   33
0195:  CLRF   32
0196:  BCF    28.2
0197:  MOVLW  FF
0198:  MOVWF  35
0199:  BSF    03.5
019A:  BSF    1F.0
019B:  BSF    1F.1
019C:  BSF    1F.2
019D:  BCF    1F.3
019E:  MOVLW  07
019F:  MOVWF  1C
01A0:  BCF    03.7
.................... { 
....................    setup_adc_ports(AN0); 
*
01AE:  BSF    03.5
01AF:  BCF    1F.0
01B0:  BSF    1F.1
01B1:  BSF    1F.2
01B2:  BSF    1F.3
....................    setup_adc(ADC_CLOCK_INTERNAL); 
01B3:  BCF    1F.6
01B4:  BCF    03.5
01B5:  BSF    1F.6
01B6:  BSF    1F.7
01B7:  BSF    03.5
01B8:  BSF    1F.7
01B9:  BCF    03.5
01BA:  BSF    1F.0
....................    setup_timer_0(RTCC_INTERNAL|RTCC_DIV_32|RTCC_8_BIT);      //1,6 ms overflow 
01BB:  BSF    03.5
01BC:  MOVF   01,W
01BD:  ANDLW  C0
01BE:  IORLW  04
01BF:  MOVWF  01
....................    setup_timer_2(T2_DIV_BY_16,255,1);      //819 us overflow, 819 us interrupt 
01C0:  MOVLW  00
01C1:  MOVWF  78
01C2:  IORLW  06
01C3:  BCF    03.5
01C4:  MOVWF  12
01C5:  MOVLW  FF
01C6:  BSF    03.5
01C7:  MOVWF  12
....................     
....................    // configuração do pwm 
....................     
....................    setup_ccp1(CCP_PWM); 
01C8:  BCF    03.5
01C9:  BCF    35.2
01CA:  MOVF   35,W
01CB:  BSF    03.5
01CC:  MOVWF  07
01CD:  BCF    03.5
01CE:  BCF    07.2
01CF:  MOVLW  0C
01D0:  MOVWF  17
....................    setup_ccp2(CCP_PWM); 
01D1:  BCF    35.1
01D2:  MOVF   35,W
01D3:  BSF    03.5
01D4:  MOVWF  07
01D5:  BCF    03.5
01D6:  BCF    07.1
01D7:  MOVLW  0C
01D8:  MOVWF  1D
....................    set_pwm1_duty((int16)0); 
01D9:  CLRF   15
01DA:  MOVF   17,W
01DB:  ANDLW  CF
01DC:  MOVWF  17
....................    set_pwm2_duty((int16)0); 
01DD:  CLRF   1B
01DE:  MOVF   1D,W
01DF:  ANDLW  CF
01E0:  MOVWF  1D
....................     
....................    enable_interrupts(INT_RTCC); 
01E1:  BSF    0B.5
....................    enable_interrupts(GLOBAL); 
01E2:  MOVLW  C0
01E3:  IORWF  0B,F
....................     
....................    kbd_init(); 
01E4:  GOTO   0B3
....................     
....................    char c; 
....................     
....................    while(true) 
....................    { 
....................     
....................       velocidade_dc = read_adc(); // leitura da porta analógica A0 
01E5:  BSF    1F.2
01E6:  BTFSC  1F.2
01E7:  GOTO   1E6
01E8:  BSF    03.5
01E9:  MOVF   1E,W
01EA:  BCF    03.5
01EB:  MOVWF  32
01EC:  MOVF   1E,W
01ED:  MOVWF  33
....................       delay_us(50); 
01EE:  MOVLW  52
01EF:  MOVWF  77
01F0:  DECFSZ 77,F
01F1:  GOTO   1F0
01F2:  GOTO   1F3
01F3:  NOP
....................        
....................       c = kbd_getc(); 
01F4:  GOTO   0DB
01F5:  MOVF   78,W
01F6:  MOVWF  36
....................       delay_ms(1); 
01F7:  MOVLW  01
01F8:  MOVWF  37
01F9:  GOTO   178
....................        
....................       if(input(PIN_A1)){ 
01FA:  BSF    03.5
01FB:  BSF    05.1
01FC:  BCF    03.5
01FD:  BTFSS  05.1
01FE:  GOTO   209
....................          while(input(PIN_A1)) {;} // enquanto o botão tá apertado ele fica dentro do loop e só sai quando solta o botão 
01FF:  BSF    03.5
0200:  BSF    05.1
0201:  BCF    03.5
0202:  BTFSC  05.1
0203:  GOTO   1FF
....................          if(sentido_dc == 1){ 
0204:  BTFSS  28.2
0205:  GOTO   208
....................             sentido_dc = 0; 
0206:  BCF    28.2
....................          } else{ 
0207:  GOTO   209
....................             sentido_dc = 1; 
0208:  BSF    28.2
....................          } 
....................       } 
....................        
....................       if(c != 0) 
0209:  MOVF   36,F
020A:  BTFSC  03.2
020B:  GOTO   23B
....................       {   
....................           
....................           
....................          switch(c){ 
020C:  MOVF   36,W
020D:  XORLW  31
020E:  BTFSC  03.2
020F:  GOTO   226
0210:  XORLW  03
0211:  BTFSC  03.2
0212:  GOTO   229
0213:  XORLW  01
0214:  BTFSC  03.2
0215:  GOTO   22C
0216:  XORLW  07
0217:  BTFSC  03.2
0218:  GOTO   22F
0219:  XORLW  01
021A:  BTFSC  03.2
021B:  GOTO   232
021C:  XORLW  05
021D:  BTFSC  03.2
021E:  GOTO   235
021F:  XORLW  1A
0220:  BTFSC  03.2
0221:  GOTO   237
0222:  XORLW  09
0223:  BTFSC  03.2
0224:  GOTO   239
0225:  GOTO   23B
....................             case '1': 
....................                tempo = 85; 
0226:  MOVLW  55
0227:  MOVWF  2B
....................                break; 
0228:  GOTO   23B
....................             case '2':  
....................                tempo = 65;  
0229:  MOVLW  41
022A:  MOVWF  2B
....................                break; 
022B:  GOTO   23B
....................             case '3':  
....................                tempo = 45;  
022C:  MOVLW  2D
022D:  MOVWF  2B
....................                break; 
022E:  GOTO   23B
....................             case '4':  
....................                tempo = 25;  
022F:  MOVLW  19
0230:  MOVWF  2B
....................                break; 
0231:  GOTO   23B
....................             case '5':  
....................                tempo = 5;  
0232:  MOVLW  05
0233:  MOVWF  2B
....................                break; 
0234:  GOTO   23B
....................             case '0':  
....................                tempo = 0;  
0235:  CLRF   2B
....................                break; 
0236:  GOTO   23B
....................             case '*':  
....................                sentido = 0;  
0237:  BCF    28.1
....................                break; 
0238:  GOTO   23B
....................             case '#':  
....................                sentido = 1;  
0239:  BSF    28.1
....................                break; 
023A:  GOTO   23B
....................             default: break; 
....................          } 
....................       } 
023B:  GOTO   1E5
....................        
....................        
....................        
....................    } 
.................... } 
023C:  SLEEP

Configuration Fuses:
   Word  1: 3F32   HS NOWDT PUT NOBROWNOUT NOLVP NOCPD NOWRT NODEBUG NOPROTECT
